target datalayout = "e-m:e-p270:32:32-p271:32:32-p272:64:64-i64:64-i128:128-f80:128-n8:16:32:64-S128"
target triple = "x86_64-pc-linux-gnu"

; Function Attrs: nounwind uwtable
define internal i32 @Extra_WordCountOnes(i32 noundef %0) #0 {
  %2 = alloca i32, align 4
  store i32 %0, ptr %2, align 4
  %3 = load i32, ptr %2, align 4
  %4 = and i32 %3, 1431655765
  %5 = load i32, ptr %2, align 4
  %6 = lshr i32 %5, 1
  %7 = and i32 %6, 1431655765
  %8 = add i32 %4, %7
  store i32 %8, ptr %2, align 4
  %9 = load i32, ptr %2, align 4
  %10 = and i32 %9, 858993459
  %11 = load i32, ptr %2, align 4
  %12 = lshr i32 %11, 2
  %13 = and i32 %12, 858993459
  %14 = add i32 %10, %13
  store i32 %14, ptr %2, align 4
  %15 = load i32, ptr %2, align 4
  %16 = and i32 %15, 252645135
  %17 = load i32, ptr %2, align 4
  %18 = lshr i32 %17, 4
  %19 = and i32 %18, 252645135
  %20 = add i32 %16, %19
  store i32 %20, ptr %2, align 4
  %21 = load i32, ptr %2, align 4
  %22 = and i32 %21, 16711935
  %23 = load i32, ptr %2, align 4
  %24 = lshr i32 %23, 8
  %25 = and i32 %24, 16711935
  %26 = add i32 %22, %25
  store i32 %26, ptr %2, align 4
  %27 = load i32, ptr %2, align 4
  %28 = and i32 %27, 65535
  %29 = load i32, ptr %2, align 4
  %30 = lshr i32 %29, 16
  %31 = add i32 %28, %30
  ret i32 %31
}

; Function Attrs: nounwind uwtable
define void @Abc_ResStartPart2(i32 noundef %0, ptr noundef %1, i32 noundef %2) #0 {
  %4 = alloca i32, align 4
  %5 = alloca ptr, align 8
  %6 = alloca i32, align 4
  %7 = alloca i32, align 4
  %8 = alloca i32, align 4
  store i32 %0, ptr %4, align 4
  store ptr %1, ptr %5, align 8
  store i32 %2, ptr %6, align 4
  store i32 0, ptr %8, align 4
  store i32 0, ptr %7, align 4
  br label %9

9:                                                ; preds = %18, %3
  %10 = load i32, ptr %7, align 4
  %11 = load i32, ptr %6, align 4
  %12 = icmp slt i32 %10, %11
  br i1 %12, label %13, label %21

13:                                               ; preds = %9
  %14 = load ptr, ptr %5, align 8
  %15 = load i32, ptr %7, align 4
  %16 = sext i32 %15 to i64
  %17 = getelementptr inbounds i32, ptr %14, i64 %16
  store i32 0, ptr %17, align 4
  br label %18

18:                                               ; preds = %13
  %19 = load i32, ptr %7, align 4
  %20 = add nsw i32 %19, 1
  store i32 %20, ptr %7, align 4
  br label %9, !llvm.loop !13

21:                                               ; preds = %9
  store i32 0, ptr %7, align 4
  br label %22

22:                                               ; preds = %37, %21
  %23 = load i32, ptr %7, align 4
  %24 = load i32, ptr %4, align 4
  %25 = icmp slt i32 %23, %24
  br i1 %25, label %26, label %40

26:                                               ; preds = %22
  %27 = load i32, ptr %7, align 4
  %28 = shl i32 1, %27
  %29 = load ptr, ptr %5, align 8
  %30 = load i32, ptr %7, align 4
  %31 = load i32, ptr %6, align 4
  %32 = srem i32 %30, %31
  %33 = sext i32 %32 to i64
  %34 = getelementptr inbounds i32, ptr %29, i64 %33
  %35 = load i32, ptr %34, align 4
  %36 = or i32 %35, %28
  store i32 %36, ptr %34, align 4
  br label %37

37:                                               ; preds = %26
  %38 = load i32, ptr %7, align 4
  %39 = add nsw i32 %38, 1
  store i32 %39, ptr %7, align 4
  br label %22, !llvm.loop !14

40:                                               ; preds = %22
  store i32 0, ptr %7, align 4
  br label %41

41:                                               ; preds = %54, %40
  %42 = load i32, ptr %7, align 4
  %43 = load i32, ptr %6, align 4
  %44 = icmp slt i32 %42, %43
  br i1 %44, label %45, label %57

45:                                               ; preds = %41
  %46 = load ptr, ptr %5, align 8
  %47 = load i32, ptr %7, align 4
  %48 = sext i32 %47 to i64
  %49 = getelementptr inbounds i32, ptr %46, i64 %48
  %50 = load i32, ptr %49, align 4
  %51 = call i32 @Extra_WordCountOnes(i32 noundef %50)
  %52 = load i32, ptr %8, align 4
  %53 = add nsw i32 %52, %51
  store i32 %53, ptr %8, align 4
  br label %54

54:                                               ; preds = %45
  %55 = load i32, ptr %7, align 4
  %56 = add nsw i32 %55, 1
  store i32 %56, ptr %7, align 4
  br label %41, !llvm.loop !15

57:                                               ; preds = %41
  ret void
}