; Function Attrs: nofree norecurse nosync nounwind memory(argmem: readwrite) uwtable
define void @Abc_ResStartPart2(i32 noundef %0, ptr noundef captures(none) %1, i32 noundef %2) local_unnamed_addr #3 {
  %4 = icmp sgt i32 %2, 0
  br i1 %4, label %.lr.ph.preheader, label %.preheader19

.lr.ph.preheader:                                 ; preds = %3
  %5 = zext nneg i32 %2 to i64
  %6 = shl nuw nsw i64 %5, 2
  tail call void @llvm.memset.p0.i64(ptr align 4 %1, i8 0, i64 %6, i1 false)
  br label %.preheader19

.preheader19:                                     ; preds = %.lr.ph.preheader, %3
  %7 = icmp sgt i32 %0, 0
  br i1 %7, label %.lr.ph22, label %.preheader

.preheader:                                       ; preds = %.lr.ph22, %.preheader19
  ret void

.lr.ph22:                                         ; preds = %.preheader19, %.lr.ph22
  %.121 = phi i32 [ %14, %.lr.ph22 ], [ 0, %.preheader19 ]
  %8 = shl nuw i32 1, %.121
  %9 = srem i32 %.121, %2
  %10 = zext nneg i32 %9 to i64
  %11 = getelementptr inbounds nuw i32, ptr %1, i64 %10
  %12 = load i32, ptr %11, align 4
  %13 = or i32 %12, %8
  store i32 %13, ptr %11, align 4
  %14 = add nuw nsw i32 %.121, 1
  %exitcond.not = icmp eq i32 %14, %0
  br i1 %exitcond.not, label %.preheader, label %.lr.ph22, !llvm.loop !12
}